target datalayout = "e-m:e-p270:32:32-p271:32:32-p272:64:64-i64:64-i128:128-f80:128-n8:16:32:64-S128"
target triple = "x86_64-unknown-linux-gnu"

%"class.google::protobuf::io::Tokenizer" = type { %"struct.google::protobuf::io::Tokenizer::Token", %"struct.google::protobuf::io::Tokenizer::Token", ptr, ptr, i8, ptr, i32, i32, i8, i32, i32, ptr, i32, i8, i32, i8, i8, i8, i8 }
%"struct.google::protobuf::io::Tokenizer::Token" = type <{ i32, [4 x i8], %"class.std::__cxx11::basic_string", i32, i32, i32, [4 x i8] }>
%"class.std::__cxx11::basic_string" = type { %"struct.std::__cxx11::basic_string<char>::_Alloc_hider", i64, %union.anon }
%"struct.std::__cxx11::basic_string<char>::_Alloc_hider" = type { ptr }
%union.anon = type { i64, [8 x i8] }

; Function Attrs: mustprogress uwtable
define linkonce_odr hidden noundef zeroext i1 @_ZN6google8protobuf2io9Tokenizer10TryConsumeEc(ptr noundef nonnull align 8 dereferenceable(192) %this, i8 noundef signext %c) #6 comdat align 2 {
entry:
  %retval = alloca i1, align 1
  %this.addr = alloca ptr, align 8
  %c.addr = alloca i8, align 1
  store ptr %this, ptr %this.addr, align 8
  store i8 %c, ptr %c.addr, align 1
  %this1 = load ptr, ptr %this.addr, align 8
  %current_char_ = getelementptr inbounds %"class.google::protobuf::io::Tokenizer", ptr %this1, i32 0, i32 4
  %0 = load i8, ptr %current_char_, align 8
  %conv = sext i8 %0 to i32
  %1 = load i8, ptr %c.addr, align 1
  %conv2 = sext i8 %1 to i32
  %cmp = icmp eq i32 %conv, %conv2
  br i1 %cmp, label %if.then, label %if.else

if.then:                                          ; preds = %entry
  call void @_ZN6google8protobuf2io9Tokenizer8NextCharEv(ptr noundef nonnull align 8 dereferenceable(192) %this1)
  store i1 true, ptr %retval, align 1
  br label %return

if.else:                                          ; preds = %entry
  store i1 false, ptr %retval, align 1
  br label %return

return:                                           ; preds = %if.else, %if.then
  %2 = load i1, ptr %retval, align 1
  ret i1 %2
}

; Function Attrs: mustprogress uwtable
define noundef zeroext i1 @_ZN6google8protobuf2io9Tokenizer17TryConsumeNewlineEv(ptr noundef nonnull align 8 dereferenceable(192) %this) #6 align 2 {
entry:
  %retval = alloca i1, align 1
  %this.addr = alloca ptr, align 8
  store ptr %this, ptr %this.addr, align 8
  %this1 = load ptr, ptr %this.addr, align 8
  %report_whitespace_ = getelementptr inbounds %"class.google::protobuf::io::Tokenizer", ptr %this1, i32 0, i32 17
  %0 = load i8, ptr %report_whitespace_, align 2
  %tobool = trunc i8 %0 to i1
  br i1 %tobool, label %lor.lhs.false, label %if.then

lor.lhs.false:                                    ; preds = %entry
  %report_newlines_ = getelementptr inbounds %"class.google::protobuf::io::Tokenizer", ptr %this1, i32 0, i32 18
  %1 = load i8, ptr %report_newlines_, align 1
  %tobool2 = trunc i8 %1 to i1
  br i1 %tobool2, label %if.end, label %if.then

if.then:                                          ; preds = %lor.lhs.false, %entry
  store i1 false, ptr %retval, align 1
  br label %return

if.end:                                           ; preds = %lor.lhs.false
  %call = call noundef zeroext i1 @_ZN6google8protobuf2io9Tokenizer10TryConsumeEc(ptr noundef nonnull align 8 dereferenceable(192) %this1, i8 noundef signext 10)
  br i1 %call, label %if.then3, label %if.end4

if.then3:                                         ; preds = %if.end
  %current_ = getelementptr inbounds %"class.google::protobuf::io::Tokenizer", ptr %this1, i32 0, i32 0
  %type = getelementptr inbounds %"struct.google::protobuf::io::Tokenizer::Token", ptr %current_, i32 0, i32 0
  store i32 8, ptr %type, align 8
  store i1 true, ptr %retval, align 1
  br label %return

if.end4:                                          ; preds = %if.end
  store i1 false, ptr %retval, align 1
  br label %return

return:                                           ; preds = %if.end4, %if.then3, %if.then
  %2 = load i1, ptr %retval, align 1
  ret i1 %2
}