; Function Attrs: mustprogress uwtable
define noundef zeroext i1 @_ZN6google8protobuf2io9Tokenizer17TryConsumeNewlineEv(ptr noundef nonnull align 8 dereferenceable(192) %this) local_unnamed_addr #6 align 2 {
entry:
  %report_whitespace_ = getelementptr inbounds nuw i8, ptr %this, i64 190
  %0 = load i8, ptr %report_whitespace_, align 2
  %tobool = trunc i8 %0 to i1
  br i1 %tobool, label %lor.lhs.false, label %return

lor.lhs.false:                                    ; preds = %entry
  %report_newlines_ = getelementptr inbounds nuw i8, ptr %this, i64 191
  %1 = load i8, ptr %report_newlines_, align 1
  %tobool2 = trunc i8 %1 to i1
  %current_char_.i = getelementptr inbounds nuw i8, ptr %this, i64 128
  %2 = load i8, ptr %current_char_.i, align 8
  %cmp.i = icmp eq i8 %2, 10
  %or.cond = select i1 %tobool2, i1 %cmp.i, i1 false
  br i1 %or.cond, label %if.then3, label %return

if.then3:                                         ; preds = %lor.lhs.false
  tail call void @_ZN6google8protobuf2io9Tokenizer8NextCharEv(ptr noundef nonnull align 8 dereferenceable(192) %this)
  store i32 8, ptr %this, align 8
  br label %return

return:                                           ; preds = %entry, %lor.lhs.false, %if.then3
  %retval.0 = phi i1 [ true, %if.then3 ], [ false, %lor.lhs.false ], [ false, %entry ]
  ret i1 %retval.0
}